; ModuleID = '39/1587.c'
source_filename = "39/1587.c"
target datalayout = "e-m:e-p270:32:32-p271:32:32-p272:64:64-i64:64-f80:128-n8:16:32:64-S128"
target triple = "x86_64-pc-linux-gnu"

%struct.student = type { [21 x i8], i32, i32, i8, i8, i32 }

@.str = private unnamed_addr constant [3 x i8] c"%d\00", align 1
@.str.1 = private unnamed_addr constant [4 x i8] c"%s \00", align 1
@stu = common dso_local global [101 x %struct.student] zeroinitializer, align 16
@.str.2 = private unnamed_addr constant [7 x i8] c"%d %d \00", align 1
@.str.3 = private unnamed_addr constant [7 x i8] c"%c %c \00", align 1
@.str.4 = private unnamed_addr constant [4 x i8] c"%s\0A\00", align 1
@.str.5 = private unnamed_addr constant [4 x i8] c"%d\0A\00", align 1

; Function Attrs: noinline nounwind uwtable
define dso_local i32 @main() #0 {
  %1 = alloca i32, align 4
  %2 = alloca i32, align 4
  %3 = alloca i32, align 4
  %4 = alloca i32, align 4
  %5 = alloca i32, align 4
  %6 = alloca [101 x i32], align 16
  store i32 0, i32* %1, align 4
  store i32 0, i32* %4, align 4
  store i32 0, i32* %5, align 4
  %7 = bitcast [101 x i32]* %6 to i8*
  call void @llvm.memset.p0i8.i64(i8* align 16 %7, i8 0, i64 404, i1 false)
  %8 = call i32 (i8*, ...) @__isoc99_scanf(i8* getelementptr inbounds ([3 x i8], [3 x i8]* @.str, i64 0, i64 0), i32* %2)
  store i32 0, i32* %3, align 4
  br label %9

9:                                                ; preds = %42, %0
  %10 = load i32, i32* %3, align 4
  %11 = load i32, i32* %2, align 4
  %12 = icmp slt i32 %10, %11
  br i1 %12, label %13, label %45

13:                                               ; preds = %9
  %14 = load i32, i32* %3, align 4
  %15 = sext i32 %14 to i64
  %16 = getelementptr inbounds [101 x %struct.student], [101 x %struct.student]* @stu, i64 0, i64 %15
  %17 = getelementptr inbounds %struct.student, %struct.student* %16, i32 0, i32 0
  %18 = call i32 (i8*, ...) @__isoc99_scanf(i8* getelementptr inbounds ([4 x i8], [4 x i8]* @.str.1, i64 0, i64 0), [21 x i8]* %17)
  %19 = load i32, i32* %3, align 4
  %20 = sext i32 %19 to i64
  %21 = getelementptr inbounds [101 x %struct.student], [101 x %struct.student]* @stu, i64 0, i64 %20
  %22 = getelementptr inbounds %struct.student, %struct.student* %21, i32 0, i32 1
  %23 = load i32, i32* %3, align 4
  %24 = sext i32 %23 to i64
  %25 = getelementptr inbounds [101 x %struct.student], [101 x %struct.student]* @stu, i64 0, i64 %24
  %26 = getelementptr inbounds %struct.student, %struct.student* %25, i32 0, i32 2
  %27 = call i32 (i8*, ...) @__isoc99_scanf(i8* getelementptr inbounds ([7 x i8], [7 x i8]* @.str.2, i64 0, i64 0), i32* %22, i32* %26)
  %28 = load i32, i32* %3, align 4
  %29 = sext i32 %28 to i64
  %30 = getelementptr inbounds [101 x %struct.student], [101 x %struct.student]* @stu, i64 0, i64 %29
  %31 = getelementptr inbounds %struct.student, %struct.student* %30, i32 0, i32 3
  %32 = load i32, i32* %3, align 4
  %33 = sext i32 %32 to i64
  %34 = getelementptr inbounds [101 x %struct.student], [101 x %struct.student]* @stu, i64 0, i64 %33
  %35 = getelementptr inbounds %struct.student, %struct.student* %34, i32 0, i32 4
  %36 = call i32 (i8*, ...) @__isoc99_scanf(i8* getelementptr inbounds ([7 x i8], [7 x i8]* @.str.3, i64 0, i64 0), i8* %31, i8* %35)
  %37 = load i32, i32* %3, align 4
  %38 = sext i32 %37 to i64
  %39 = getelementptr inbounds [101 x %struct.student], [101 x %struct.student]* @stu, i64 0, i64 %38
  %40 = getelementptr inbounds %struct.student, %struct.student* %39, i32 0, i32 5
  %41 = call i32 (i8*, ...) @__isoc99_scanf(i8* getelementptr inbounds ([3 x i8], [3 x i8]* @.str, i64 0, i64 0), i32* %40)
  br label %42

42:                                               ; preds = %13
  %43 = load i32, i32* %3, align 4
  %44 = add nsw i32 %43, 1
  store i32 %44, i32* %3, align 4
  br label %9

45:                                               ; preds = %9
  store i32 0, i32* %3, align 4
  br label %46

46:                                               ; preds = %161, %45
  %47 = load i32, i32* %3, align 4
  %48 = load i32, i32* %2, align 4
  %49 = icmp slt i32 %47, %48
  br i1 %49, label %50, label %164

50:                                               ; preds = %46
  %51 = load i32, i32* %3, align 4
  %52 = sext i32 %51 to i64
  %53 = getelementptr inbounds [101 x %struct.student], [101 x %struct.student]* @stu, i64 0, i64 %52
  %54 = getelementptr inbounds %struct.student, %struct.student* %53, i32 0, i32 1
  %55 = load i32, i32* %54, align 8
  %56 = icmp sgt i32 %55, 80
  br i1 %56, label %57, label %73

57:                                               ; preds = %50
  %58 = load i32, i32* %3, align 4
  %59 = sext i32 %58 to i64
  %60 = getelementptr inbounds [101 x %struct.student], [101 x %struct.student]* @stu, i64 0, i64 %59
  %61 = getelementptr inbounds %struct.student, %struct.student* %60, i32 0, i32 5
  %62 = load i32, i32* %61, align 4
  %63 = icmp sge i32 %62, 1
  br i1 %63, label %64, label %73

64:                                               ; preds = %57
  %65 = load i32, i32* %3, align 4
  %66 = sext i32 %65 to i64
  %67 = getelementptr inbounds [101 x i32], [101 x i32]* %6, i64 0, i64 %66
  %68 = load i32, i32* %67, align 4
  %69 = add nsw i32 %68, 8000
  %70 = load i32, i32* %3, align 4
  %71 = sext i32 %70 to i64
  %72 = getelementptr inbounds [101 x i32], [101 x i32]* %6, i64 0, i64 %71
  store i32 %69, i32* %72, align 4
  br label %73

73:                                               ; preds = %64, %57, %50
  %74 = load i32, i32* %3, align 4
  %75 = sext i32 %74 to i64
  %76 = getelementptr inbounds [101 x %struct.student], [101 x %struct.student]* @stu, i64 0, i64 %75
  %77 = getelementptr inbounds %struct.student, %struct.student* %76, i32 0, i32 1
  %78 = load i32, i32* %77, align 8
  %79 = icmp sgt i32 %78, 85
  br i1 %79, label %80, label %96

80:                                               ; preds = %73
  %81 = load i32, i32* %3, align 4
  %82 = sext i32 %81 to i64
  %83 = getelementptr inbounds [101 x %struct.student], [101 x %struct.student]* @stu, i64 0, i64 %82
  %84 = getelementptr inbounds %struct.student, %struct.student* %83, i32 0, i32 2
  %85 = load i32, i32* %84, align 4
  %86 = icmp sgt i32 %85, 80
  br i1 %86, label %87, label %96

87:                                               ; preds = %80
  %88 = load i32, i32* %3, align 4
  %89 = sext i32 %88 to i64
  %90 = getelementptr inbounds [101 x i32], [101 x i32]* %6, i64 0, i64 %89
  %91 = load i32, i32* %90, align 4
  %92 = add nsw i32 %91, 4000
  %93 = load i32, i32* %3, align 4
  %94 = sext i32 %93 to i64
  %95 = getelementptr inbounds [101 x i32], [101 x i32]* %6, i64 0, i64 %94
  store i32 %92, i32* %95, align 4
  br label %96

96:                                               ; preds = %87, %80, %73
  %97 = load i32, i32* %3, align 4
  %98 = sext i32 %97 to i64
  %99 = getelementptr inbounds [101 x %struct.student], [101 x %struct.student]* @stu, i64 0, i64 %98
  %100 = getelementptr inbounds %struct.student, %struct.student* %99, i32 0, i32 1
  %101 = load i32, i32* %100, align 8
  %102 = icmp sgt i32 %101, 90
  br i1 %102, label %103, label %112

103:                                              ; preds = %96
  %104 = load i32, i32* %3, align 4
  %105 = sext i32 %104 to i64
  %106 = getelementptr inbounds [101 x i32], [101 x i32]* %6, i64 0, i64 %105
  %107 = load i32, i32* %106, align 4
  %108 = add nsw i32 %107, 2000
  %109 = load i32, i32* %3, align 4
  %110 = sext i32 %109 to i64
  %111 = getelementptr inbounds [101 x i32], [101 x i32]* %6, i64 0, i64 %110
  store i32 %108, i32* %111, align 4
  br label %112

112:                                              ; preds = %103, %96
  %113 = load i32, i32* %3, align 4
  %114 = sext i32 %113 to i64
  %115 = getelementptr inbounds [101 x %struct.student], [101 x %struct.student]* @stu, i64 0, i64 %114
  %116 = getelementptr inbounds %struct.student, %struct.student* %115, i32 0, i32 1
  %117 = load i32, i32* %116, align 8
  %118 = icmp sgt i32 %117, 85
  br i1 %118, label %119, label %136

119:                                              ; preds = %112
  %120 = load i32, i32* %3, align 4
  %121 = sext i32 %120 to i64
  %122 = getelementptr inbounds [101 x %struct.student], [101 x %struct.student]* @stu, i64 0, i64 %121
  %123 = getelementptr inbounds %struct.student, %struct.student* %122, i32 0, i32 4
  %124 = load i8, i8* %123, align 1
  %125 = sext i8 %124 to i32
  %126 = icmp eq i32 %125, 89
  br i1 %126, label %127, label %136

127:                                              ; preds = %119
  %128 = load i32, i32* %3, align 4
  %129 = sext i32 %128 to i64
  %130 = getelementptr inbounds [101 x i32], [101 x i32]* %6, i64 0, i64 %129
  %131 = load i32, i32* %130, align 4
  %132 = add nsw i32 %131, 1000
  %133 = load i32, i32* %3, align 4
  %134 = sext i32 %133 to i64
  %135 = getelementptr inbounds [101 x i32], [101 x i32]* %6, i64 0, i64 %134
  store i32 %132, i32* %135, align 4
  br label %136

136:                                              ; preds = %127, %119, %112
  %137 = load i32, i32* %3, align 4
  %138 = sext i32 %137 to i64
  %139 = getelementptr inbounds [101 x %struct.student], [101 x %struct.student]* @stu, i64 0, i64 %138
  %140 = getelementptr inbounds %struct.student, %struct.student* %139, i32 0, i32 2
  %141 = load i32, i32* %140, align 4
  %142 = icmp sgt i32 %141, 80
  br i1 %142, label %143, label %160

143:                                              ; preds = %136
  %144 = load i32, i32* %3, align 4
  %145 = sext i32 %144 to i64
  %146 = getelementptr inbounds [101 x %struct.student], [101 x %struct.student]* @stu, i64 0, i64 %145
  %147 = getelementptr inbounds %struct.student, %struct.student* %146, i32 0, i32 3
  %148 = load i8, i8* %147, align 8
  %149 = sext i8 %148 to i32
  %150 = icmp eq i32 %149, 89
  br i1 %150, label %151, label %160

151:                                              ; preds = %143
  %152 = load i32, i32* %3, align 4
  %153 = sext i32 %152 to i64
  %154 = getelementptr inbounds [101 x i32], [101 x i32]* %6, i64 0, i64 %153
  %155 = load i32, i32* %154, align 4
  %156 = add nsw i32 %155, 850
  %157 = load i32, i32* %3, align 4
  %158 = sext i32 %157 to i64
  %159 = getelementptr inbounds [101 x i32], [101 x i32]* %6, i64 0, i64 %158
  store i32 %156, i32* %159, align 4
  br label %160

160:                                              ; preds = %151, %143, %136
  br label %161

161:                                              ; preds = %160
  %162 = load i32, i32* %3, align 4
  %163 = add nsw i32 %162, 1
  store i32 %163, i32* %3, align 4
  br label %46

164:                                              ; preds = %46
  store i32 0, i32* %3, align 4
  br label %165

165:                                              ; preds = %188, %164
  %166 = load i32, i32* %3, align 4
  %167 = load i32, i32* %2, align 4
  %168 = icmp slt i32 %166, %167
  br i1 %168, label %169, label %191

169:                                              ; preds = %165
  %170 = load i32, i32* %3, align 4
  %171 = sext i32 %170 to i64
  %172 = getelementptr inbounds [101 x i32], [101 x i32]* %6, i64 0, i64 %171
  %173 = load i32, i32* %172, align 4
  %174 = load i32, i32* %5, align 4
  %175 = sext i32 %174 to i64
  %176 = getelementptr inbounds [101 x i32], [101 x i32]* %6, i64 0, i64 %175
  %177 = load i32, i32* %176, align 4
  %178 = icmp sgt i32 %173, %177
  br i1 %178, label %179, label %181

179:                                              ; preds = %169
  %180 = load i32, i32* %3, align 4
  store i32 %180, i32* %5, align 4
  br label %181

181:                                              ; preds = %179, %169
  %182 = load i32, i32* %4, align 4
  %183 = load i32, i32* %3, align 4
  %184 = sext i32 %183 to i64
  %185 = getelementptr inbounds [101 x i32], [101 x i32]* %6, i64 0, i64 %184
  %186 = load i32, i32* %185, align 4
  %187 = add nsw i32 %182, %186
  store i32 %187, i32* %4, align 4
  br label %188

188:                                              ; preds = %181
  %189 = load i32, i32* %3, align 4
  %190 = add nsw i32 %189, 1
  store i32 %190, i32* %3, align 4
  br label %165

191:                                              ; preds = %165
  %192 = load i32, i32* %5, align 4
  %193 = sext i32 %192 to i64
  %194 = getelementptr inbounds [101 x %struct.student], [101 x %struct.student]* @stu, i64 0, i64 %193
  %195 = getelementptr inbounds %struct.student, %struct.student* %194, i32 0, i32 0
  %196 = getelementptr inbounds [21 x i8], [21 x i8]* %195, i64 0, i64 0
  %197 = call i32 (i8*, ...) @printf(i8* getelementptr inbounds ([4 x i8], [4 x i8]* @.str.4, i64 0, i64 0), i8* %196)
  %198 = load i32, i32* %5, align 4
  %199 = sext i32 %198 to i64
  %200 = getelementptr inbounds [101 x i32], [101 x i32]* %6, i64 0, i64 %199
  %201 = load i32, i32* %200, align 4
  %202 = call i32 (i8*, ...) @printf(i8* getelementptr inbounds ([4 x i8], [4 x i8]* @.str.5, i64 0, i64 0), i32 %201)
  %203 = load i32, i32* %4, align 4
  %204 = call i32 (i8*, ...) @printf(i8* getelementptr inbounds ([3 x i8], [3 x i8]* @.str, i64 0, i64 0), i32 %203)
  ret i32 0
}

; Function Attrs: argmemonly nounwind willreturn
declare void @llvm.memset.p0i8.i64(i8* nocapture writeonly, i8, i64, i1 immarg) #1

declare dso_local i32 @__isoc99_scanf(i8*, ...) #2

declare dso_local i32 @printf(i8*, ...) #2


!llvm.module.flags = !{!0}
!llvm.ident = !{!1}

!0 = !{i32 1, !"wchar_size", i32 4}
!1 = !{!"clang version 10.0.0-4ubuntu1 "}
